target datalayout = "e-m:e-p270:32:32-p271:32:32-p272:64:64-i64:64-i128:128-f80:128-n8:16:32:64-S128"
target triple = "x86_64-pc-linux-gnu"

@.str = private unnamed_addr constant [41 x i8] c"in function mp_encode_lua_table_as_array\00", align 1

; Function Attrs: nounwind uwtable
define dso_local void @mp_encode_lua_table_as_array(ptr noundef %0, ptr noundef %1, i32 noundef %2) #0 {
  %4 = alloca ptr, align 8
  %5 = alloca ptr, align 8
  %6 = alloca i32, align 4
  %7 = alloca i64, align 8
  %8 = alloca i64, align 8
  store ptr %0, ptr %4, align 8, !tbaa !17
  store ptr %1, ptr %5, align 8, !tbaa !19
  store i32 %2, ptr %6, align 4, !tbaa !12
  call void @llvm.lifetime.start.p0(i64 8, ptr %7) #6
  %9 = load ptr, ptr %4, align 8, !tbaa !17
  %10 = call i64 @lua_objlen(ptr noundef %9, i32 noundef -1)
  store i64 %10, ptr %7, align 8, !tbaa !8
  call void @llvm.lifetime.start.p0(i64 8, ptr %8) #6
  %11 = load ptr, ptr %4, align 8, !tbaa !17
  %12 = load ptr, ptr %5, align 8, !tbaa !19
  %13 = load i64, ptr %7, align 8, !tbaa !8
  call void @mp_encode_array(ptr noundef %11, ptr noundef %12, i64 noundef %13)
  %14 = load ptr, ptr %4, align 8, !tbaa !17
  call void @luaL_checkstack(ptr noundef %14, i32 noundef 1, ptr noundef @.str)
  store i64 1, ptr %8, align 8, !tbaa !8
  br label %15

15:                                               ; preds = %28, %3
  %16 = load i64, ptr %8, align 8, !tbaa !8
  %17 = load i64, ptr %7, align 8, !tbaa !8
  %18 = icmp ule i64 %16, %17
  br i1 %18, label %19, label %31

19:                                               ; preds = %15
  %20 = load ptr, ptr %4, align 8, !tbaa !17
  %21 = load i64, ptr %8, align 8, !tbaa !8
  %22 = uitofp i64 %21 to double
  call void @lua_pushnumber(ptr noundef %20, double noundef %22)
  %23 = load ptr, ptr %4, align 8, !tbaa !17
  call void @lua_gettable(ptr noundef %23, i32 noundef -2)
  %24 = load ptr, ptr %4, align 8, !tbaa !17
  %25 = load ptr, ptr %5, align 8, !tbaa !19
  %26 = load i32, ptr %6, align 4, !tbaa !12
  %27 = add nsw i32 %26, 1
  call void @mp_encode_lua_type(ptr noundef %24, ptr noundef %25, i32 noundef %27)
  br label %28

28:                                               ; preds = %19
  %29 = load i64, ptr %8, align 8, !tbaa !8
  %30 = add i64 %29, 1
  store i64 %30, ptr %8, align 8, !tbaa !8
  br label %15, !llvm.loop !35

31:                                               ; preds = %15
  call void @llvm.lifetime.end.p0(i64 8, ptr %8) #6
  call void @llvm.lifetime.end.p0(i64 8, ptr %7) #6
  ret void
}

; Function Attrs: nounwind uwtable
define dso_local void @mp_encode_lua_table(ptr noundef %0, ptr noundef %1, i32 noundef %2) #0 {
  %4 = alloca ptr, align 8
  %5 = alloca ptr, align 8
  %6 = alloca i32, align 4
  store ptr %0, ptr %4, align 8, !tbaa !17
  store ptr %1, ptr %5, align 8, !tbaa !19
  store i32 %2, ptr %6, align 4, !tbaa !12
  %7 = load ptr, ptr %4, align 8, !tbaa !17
  %8 = call i32 @table_is_an_array(ptr noundef %7)
  %9 = icmp ne i32 %8, 0
  br i1 %9, label %10, label %14

10:                                               ; preds = %3
  %11 = load ptr, ptr %4, align 8, !tbaa !17
  %12 = load ptr, ptr %5, align 8, !tbaa !19
  %13 = load i32, ptr %6, align 4, !tbaa !12
  call void @mp_encode_lua_table_as_array(ptr noundef %11, ptr noundef %12, i32 noundef %13)
  br label %18

14:                                               ; preds = %3
  %15 = load ptr, ptr %4, align 8, !tbaa !17
  %16 = load ptr, ptr %5, align 8, !tbaa !19
  %17 = load i32, ptr %6, align 4, !tbaa !12
  call void @mp_encode_lua_table_as_map(ptr noundef %15, ptr noundef %16, i32 noundef %17)
  br label %18

18:                                               ; preds = %14, %10
  ret void
}