; Function Attrs: nounwind uwtable
define dso_local void @mp_encode_lua_table(ptr noundef %0, ptr noundef captures(none) %1, i32 noundef %2) local_unnamed_addr #2 {
  %4 = tail call i32 @table_is_an_array(ptr noundef %0)
  %.not = icmp eq i32 %4, 0
  br i1 %.not, label %11, label %5

5:                                                ; preds = %3
  %6 = tail call i64 @lua_objlen(ptr noundef %0, i32 noundef -1) #10
  tail call void @mp_encode_array(ptr noundef %0, ptr noundef %1, i64 noundef %6)
  tail call void @luaL_checkstack(ptr noundef %0, i32 noundef 1, ptr noundef nonnull @.str) #10
  %.not13.i = icmp eq i64 %6, 0
  br i1 %.not13.i, label %mp_encode_lua_table_as_array.exit, label %.lr.ph.i

.lr.ph.i:                                         ; preds = %5
  %7 = add nsw i32 %2, 1
  br label %8

8:                                                ; preds = %8, %.lr.ph.i
  %.014.i = phi i64 [ 1, %.lr.ph.i ], [ %10, %8 ]
  %9 = uitofp i64 %.014.i to double
  tail call void @lua_pushnumber(ptr noundef %0, double noundef %9) #10
  tail call void @lua_gettable(ptr noundef %0, i32 noundef -2) #10
  tail call void @mp_encode_lua_type(ptr noundef %0, ptr noundef %1, i32 noundef %7)
  %10 = add i64 %.014.i, 1
  %.not.i = icmp ugt i64 %10, %6
  br i1 %.not.i, label %mp_encode_lua_table_as_array.exit, label %8, !llvm.loop !23

11:                                               ; preds = %3
  tail call void @mp_encode_lua_table_as_map(ptr noundef %0, ptr noundef %1, i32 noundef %2)
  br label %mp_encode_lua_table_as_array.exit

mp_encode_lua_table_as_array.exit:                ; preds = %8, %5, %11
  ret void
}